target datalayout = "e-m:e-p270:32:32-p271:32:32-p272:64:64-i64:64-i128:128-f80:128-n8:16:32:64-S128"
target triple = "x86_64-unknown-linux-gnu"

%"class.QuantLib::Date" = type { i64 }
%"class.QuantLib::Period" = type { i32, i32 }
%"struct.std::pair" = type { %"class.QuantLib::Date", %"class.QuantLib::Date" }

; Function Attrs: mustprogress nounwind uwtable
define linkonce_odr noundef i32 @_ZNK8QuantLib6Period5unitsEv(ptr noundef nonnull align 4 dereferenceable(8) %this) #4 comdat align 2 {
entry:
  %this.addr = alloca ptr, align 8
  store ptr %this, ptr %this.addr, align 8, !tbaa !3
  %this1 = load ptr, ptr %this.addr, align 8
  %units_ = getelementptr inbounds nuw %"class.QuantLib::Period", ptr %this1, i32 0, i32 1
  %0 = load i32, ptr %units_, align 4, !tbaa !44
  ret i32 %0
}

; Function Attrs: mustprogress nounwind uwtable
define linkonce_odr noundef i32 @_ZNK8QuantLib6Period6lengthEv(ptr noundef nonnull align 4 dereferenceable(8) %this) #4 comdat align 2 {
entry:
  %this.addr = alloca ptr, align 8
  store ptr %this, ptr %this.addr, align 8, !tbaa !3
  %this1 = load ptr, ptr %this.addr, align 8
  %length_ = getelementptr inbounds nuw %"class.QuantLib::Period", ptr %this1, i32 0, i32 0
  %0 = load i32, ptr %length_, align 4, !tbaa !43
  ret i32 %0
}

; Function Attrs: inlinehint mustprogress uwtable
define linkonce_odr i64 @_ZNK8QuantLib4DatemiERKNS_6PeriodE(ptr noundef nonnull align 8 dereferenceable(8) %this, ptr noundef nonnull align 4 dereferenceable(8) %p) #9 comdat align 2 {
entry:
  %retval = alloca %"class.QuantLib::Date", align 8
  %this.addr = alloca ptr, align 8
  %p.addr = alloca ptr, align 8
  store ptr %this, ptr %this.addr, align 8, !tbaa !3
  store ptr %p, ptr %p.addr, align 8, !tbaa !3
  %this1 = load ptr, ptr %this.addr, align 8
  %0 = load ptr, ptr %p.addr, align 8, !tbaa !3
  %call = call noundef i32 @_ZNK8QuantLib6Period6lengthEv(ptr noundef nonnull align 4 dereferenceable(8) %0)
  %sub = sub nsw i32 0, %call
  %1 = load ptr, ptr %p.addr, align 8, !tbaa !3
  %call2 = call noundef i32 @_ZNK8QuantLib6Period5unitsEv(ptr noundef nonnull align 4 dereferenceable(8) %1)
  %call3 = call i64 @_ZN8QuantLib4Date7advanceERKS0_iNS_8TimeUnitE(ptr noundef nonnull align 8 dereferenceable(8) %this1, i32 noundef %sub, i32 noundef %call2)
  %coerce.dive = getelementptr inbounds nuw %"class.QuantLib::Date", ptr %retval, i32 0, i32 0
  store i64 %call3, ptr %coerce.dive, align 8
  %coerce.dive4 = getelementptr inbounds nuw %"class.QuantLib::Date", ptr %retval, i32 0, i32 0
  %2 = load i64, ptr %coerce.dive4, align 8
  ret i64 %2
}

; Function Attrs: mustprogress uwtable
define i64 @_ZNK8QuantLib20CPIVolatilitySurface8baseDateEv(ptr noundef nonnull align 8 dereferenceable(93) %this) unnamed_addr #7 align 2 {
entry:
  %retval = alloca %"class.QuantLib::Date", align 8
  %this.addr = alloca ptr, align 8
  %ref.tmp = alloca %"class.QuantLib::Period", align 4
  %ref.tmp9 = alloca %"struct.std::pair", align 8
  %ref.tmp10 = alloca %"class.QuantLib::Date", align 8
  %ref.tmp14 = alloca %"class.QuantLib::Period", align 4
  store ptr %this, ptr %this.addr, align 8, !tbaa !3
  %this1 = load ptr, ptr %this.addr, align 8
  %vtable = load ptr, ptr %this1, align 8, !tbaa !26
  %vfn = getelementptr inbounds ptr, ptr %vtable, i64 16
  %0 = load ptr, ptr %vfn, align 8
  %call = call noundef zeroext i1 %0(ptr noundef nonnull align 8 dereferenceable(93) %this1)
  br i1 %call, label %if.then, label %if.else

if.then:                                          ; preds = %entry
  %vtable2 = load ptr, ptr %this1, align 8, !tbaa !26
  %vfn3 = getelementptr inbounds ptr, ptr %vtable2, i64 5
  %1 = load ptr, ptr %vfn3, align 8
  %call4 = call noundef nonnull align 8 dereferenceable(8) ptr %1(ptr noundef nonnull align 8 dereferenceable(64) %this1)
  call void @llvm.lifetime.start.p0(i64 8, ptr %ref.tmp) #17
  %vtable5 = load ptr, ptr %this1, align 8, !tbaa !26
  %vfn6 = getelementptr inbounds ptr, ptr %vtable5, i64 14
  %2 = load ptr, ptr %vfn6, align 8
  %call7 = call i64 %2(ptr noundef nonnull align 8 dereferenceable(93) %this1)
  store i64 %call7, ptr %ref.tmp, align 4
  %call8 = call i64 @_ZNK8QuantLib4DatemiERKNS_6PeriodE(ptr noundef nonnull align 8 dereferenceable(8) %call4, ptr noundef nonnull align 4 dereferenceable(8) %ref.tmp)
  %coerce.dive = getelementptr inbounds nuw %"class.QuantLib::Date", ptr %retval, i32 0, i32 0
  store i64 %call8, ptr %coerce.dive, align 8
  call void @llvm.lifetime.end.p0(i64 8, ptr %ref.tmp) #17
  br label %return

if.else:                                          ; preds = %entry
  call void @llvm.lifetime.start.p0(i64 16, ptr %ref.tmp9) #17
  call void @llvm.lifetime.start.p0(i64 8, ptr %ref.tmp10) #17
  %vtable11 = load ptr, ptr %this1, align 8, !tbaa !26
  %vfn12 = getelementptr inbounds ptr, ptr %vtable11, i64 5
  %3 = load ptr, ptr %vfn12, align 8
  %call13 = call noundef nonnull align 8 dereferenceable(8) ptr %3(ptr noundef nonnull align 8 dereferenceable(64) %this1)
  call void @llvm.lifetime.start.p0(i64 8, ptr %ref.tmp14) #17
  %vtable15 = load ptr, ptr %this1, align 8, !tbaa !26
  %vfn16 = getelementptr inbounds ptr, ptr %vtable15, i64 14
  %4 = load ptr, ptr %vfn16, align 8
  %call17 = call i64 %4(ptr noundef nonnull align 8 dereferenceable(93) %this1)
  store i64 %call17, ptr %ref.tmp14, align 4
  %call18 = call i64 @_ZNK8QuantLib4DatemiERKNS_6PeriodE(ptr noundef nonnull align 8 dereferenceable(8) %call13, ptr noundef nonnull align 4 dereferenceable(8) %ref.tmp14)
  %coerce.dive19 = getelementptr inbounds nuw %"class.QuantLib::Date", ptr %ref.tmp10, i32 0, i32 0
  store i64 %call18, ptr %coerce.dive19, align 8
  %vtable20 = load ptr, ptr %this1, align 8, !tbaa !26
  %vfn21 = getelementptr inbounds ptr, ptr %vtable20, i64 15
  %5 = load ptr, ptr %vfn21, align 8
  %call22 = call noundef i32 %5(ptr noundef nonnull align 8 dereferenceable(93) %this1)
  %call23 = call { i64, i64 } @_ZN8QuantLib15inflationPeriodERKNS_4DateENS_9FrequencyE(ptr noundef nonnull align 8 dereferenceable(8) %ref.tmp10, i32 noundef %call22)
  %6 = getelementptr inbounds nuw { i64, i64 }, ptr %ref.tmp9, i32 0, i32 0
  %7 = extractvalue { i64, i64 } %call23, 0
  store i64 %7, ptr %6, align 8
  %8 = getelementptr inbounds nuw { i64, i64 }, ptr %ref.tmp9, i32 0, i32 1
  %9 = extractvalue { i64, i64 } %call23, 1
  store i64 %9, ptr %8, align 8
  %first = getelementptr inbounds nuw %"struct.std::pair", ptr %ref.tmp9, i32 0, i32 0
  call void @llvm.memcpy.p0.p0.i64(ptr align 8 %retval, ptr align 8 %first, i64 8, i1 false), !tbaa.struct !39
  call void @llvm.lifetime.end.p0(i64 8, ptr %ref.tmp14) #17
  call void @llvm.lifetime.end.p0(i64 8, ptr %ref.tmp10) #17
  call void @llvm.lifetime.end.p0(i64 16, ptr %ref.tmp9) #17
  br label %return

return:                                           ; preds = %if.else, %if.then
  %coerce.dive24 = getelementptr inbounds nuw %"class.QuantLib::Date", ptr %retval, i32 0, i32 0
  %10 = load i64, ptr %coerce.dive24, align 8
  ret i64 %10
}